ccopy_reg
_reconstructor
p1
(cargparse
Namespace
p2
c__builtin__
object
p3
NtRp4
(dp5
S'beta1'
p6
F0.75
sS'keep_prob'
p7
F0.65000000000000002
sS'batch_size'
p8
I2000
sS'checkpoint_step'
p9
I1
sS'learning_rate_d'
p10
F0.001
sS'learning_rate_g'
p11
F0.001
sS'display_step'
p12
I1
sS'training_epochs'
p13
I3000
sS'learning_rate_vae'
p14
F0.0001
sb.